target datalayout = "e-m:e-p270:32:32-p271:32:32-p272:64:64-i64:64-i128:128-f80:128-n8:16:32:64-S128"
target triple = "x86_64-pc-linux-gnu"

@.str.1 = private unnamed_addr constant [5 x i8] c"fd.c\00", align 1
@.str.7 = private unnamed_addr constant [31 x i8] c"could not remove file \22%s\22: %m\00", align 1
@__func__.durable_unlink = private unnamed_addr constant [15 x i8] c"durable_unlink\00", align 1
@.str.36 = private unnamed_addr constant [2 x i8] c".\00", align 1

; Function Attrs: nounwind uwtable
define internal i32 @fsync_parent_path(ptr noundef %0, i32 noundef %1) #0 {
  %3 = alloca i32, align 4
  %4 = alloca ptr, align 8
  %5 = alloca i32, align 4
  %6 = alloca [1024 x i8], align 16
  %7 = alloca i32, align 4
  store ptr %0, ptr %4, align 8
  store i32 %1, ptr %5, align 4
  call void @llvm.lifetime.start.p0(i64 1024, ptr %6) #14
  %8 = getelementptr inbounds [1024 x i8], ptr %6, i64 0, i64 0
  %9 = load ptr, ptr %4, align 8
  %10 = call i64 @strlcpy(ptr noundef %8, ptr noundef %9, i64 noundef 1024)
  %11 = getelementptr inbounds [1024 x i8], ptr %6, i64 0, i64 0
  call void @get_parent_directory(ptr noundef %11)
  %12 = getelementptr inbounds [1024 x i8], ptr %6, i64 0, i64 0
  %13 = call i64 @strlen(ptr noundef %12) #17
  %14 = icmp eq i64 %13, 0
  br i1 %14, label %15, label %18

15:                                               ; preds = %2
  %16 = getelementptr inbounds [1024 x i8], ptr %6, i64 0, i64 0
  %17 = call i64 @strlcpy(ptr noundef %16, ptr noundef @.str.36, i64 noundef 1024)
  br label %18

18:                                               ; preds = %15, %2
  %19 = getelementptr inbounds [1024 x i8], ptr %6, i64 0, i64 0
  %20 = load i32, ptr %5, align 4
  %21 = call i32 @fsync_fname_ext(ptr noundef %19, i1 noundef zeroext true, i1 noundef zeroext false, i32 noundef %20)
  %22 = icmp ne i32 %21, 0
  br i1 %22, label %23, label %24

23:                                               ; preds = %18
  store i32 -1, ptr %3, align 4
  store i32 1, ptr %7, align 4
  br label %25

24:                                               ; preds = %18
  store i32 0, ptr %3, align 4
  store i32 1, ptr %7, align 4
  br label %25

25:                                               ; preds = %24, %23
  call void @llvm.lifetime.end.p0(i64 1024, ptr %6) #14
  %26 = load i32, ptr %3, align 4
  ret i32 %26
}

; Function Attrs: nounwind uwtable
define dso_local i32 @durable_unlink(ptr noundef %0, i32 noundef %1) #0 {
  %3 = alloca i32, align 4
  %4 = alloca ptr, align 8
  %5 = alloca i32, align 4
  store ptr %0, ptr %4, align 8
  store i32 %1, ptr %5, align 4
  %6 = load ptr, ptr %4, align 8
  %7 = call i32 @unlink(ptr noundef %6) #14
  %8 = icmp slt i32 %7, 0
  br i1 %8, label %9, label %35

9:                                                ; preds = %2
  br label %10

10:                                               ; preds = %9
  %11 = load i32, ptr %5, align 4
  %12 = call i1 @llvm.is.constant.i32(i32 %11)
  br i1 %12, label %13, label %19

13:                                               ; preds = %10
  %14 = load i32, ptr %5, align 4
  %15 = icmp sge i32 %14, 21
  br i1 %15, label %16, label %19

16:                                               ; preds = %13
  %17 = load i32, ptr %5, align 4
  %18 = call zeroext i1 @errstart_cold(i32 noundef %17, ptr noundef null) #16
  br i1 %18, label %22, label %26

19:                                               ; preds = %13, %10
  %20 = load i32, ptr %5, align 4
  %21 = call zeroext i1 @errstart(i32 noundef %20, ptr noundef null)
  br i1 %21, label %22, label %26

22:                                               ; preds = %19, %16
  %23 = call i32 @errcode_for_file_access()
  %24 = load ptr, ptr %4, align 8
  %25 = call i32 (ptr, ...) @errmsg(ptr noundef @.str.7, ptr noundef %24)
  call void @errfinish(ptr noundef @.str.1, i32 noundef 878, ptr noundef @__func__.durable_unlink)
  br label %26

26:                                               ; preds = %22, %19, %16
  %27 = load i32, ptr %5, align 4
  %28 = call i1 @llvm.is.constant.i32(i32 %27)
  br i1 %28, label %29, label %33

29:                                               ; preds = %26
  %30 = load i32, ptr %5, align 4
  %31 = icmp sge i32 %30, 21
  br i1 %31, label %32, label %33

32:                                               ; preds = %29
  unreachable

33:                                               ; preds = %29, %26
  br label %34

34:                                               ; preds = %33
  store i32 -1, ptr %3, align 4
  br label %42

35:                                               ; preds = %2
  %36 = load ptr, ptr %4, align 8
  %37 = load i32, ptr %5, align 4
  %38 = call i32 @fsync_parent_path(ptr noundef %36, i32 noundef %37)
  %39 = icmp ne i32 %38, 0
  br i1 %39, label %40, label %41

40:                                               ; preds = %35
  store i32 -1, ptr %3, align 4
  br label %42

41:                                               ; preds = %35
  store i32 0, ptr %3, align 4
  br label %42

42:                                               ; preds = %41, %40, %34
  %43 = load i32, ptr %3, align 4
  ret i32 %43
}