; Function Attrs: nounwind uwtable
define dso_local range(i32 -1, 1) i32 @durable_unlink(ptr noundef %0, i32 noundef %1) local_unnamed_addr #0 {
  %3 = alloca [1024 x i8], align 16
  %4 = tail call i32 @unlink(ptr noundef %0) #25
  %5 = icmp slt i32 %4, 0
  br i1 %5, label %6, label %11

6:                                                ; preds = %2
  %7 = tail call zeroext i1 @errstart(i32 noundef %1, ptr noundef null) #25
  br i1 %7, label %8, label %16

8:                                                ; preds = %6
  %9 = tail call i32 @errcode_for_file_access() #25
  %10 = tail call i32 (ptr, ...) @errmsg(ptr noundef nonnull @.str.7, ptr noundef %0) #25
  tail call void @errfinish(ptr noundef nonnull @.str.1, i32 noundef 878, ptr noundef nonnull @__func__.durable_unlink) #25
  br label %16

11:                                               ; preds = %2
  call void @llvm.lifetime.start.p0(i64 1024, ptr nonnull %3) #25
  %12 = call i64 @strlcpy(ptr noundef nonnull dereferenceable(1) %3, ptr noundef nonnull dereferenceable(1) %0, i64 noundef 1024) #25
  call void @get_parent_directory(ptr noundef nonnull %3) #25
  %char0.i = load i8, ptr %3, align 16
  %13 = icmp eq i8 %char0.i, 0
  br i1 %13, label %14, label %fsync_parent_path.exit

14:                                               ; preds = %11
  store i16 46, ptr %3, align 16
  br label %fsync_parent_path.exit

fsync_parent_path.exit:                           ; preds = %11, %14
  %15 = call i32 @fsync_fname_ext(ptr noundef nonnull %3, i1 noundef zeroext true, i1 noundef zeroext false, i32 noundef %1)
  %.not.i.not = icmp ne i32 %15, 0
  call void @llvm.lifetime.end.p0(i64 1024, ptr nonnull %3) #25
  %. = sext i1 %.not.i.not to i32
  br label %16

16:                                               ; preds = %6, %8, %fsync_parent_path.exit
  %.0 = phi i32 [ %., %fsync_parent_path.exit ], [ -1, %8 ], [ -1, %6 ]
  ret i32 %.0
}